target datalayout = "e-m:e-p270:32:32-p271:32:32-p272:64:64-i64:64-i128:128-f80:128-n8:16:32:64-S128"
target triple = "x86_64-pc-linux-gnu"

%struct.rb_compile_option_struct = type { i16, i32 }

@COMPILE_OPTION_DEFAULT = internal global { i8, i8, [2 x i8], i32 } { i8 -37, i8 2, [2 x i8] zeroinitializer, i32 0 }, align 4
@.str.137 = private unnamed_addr constant [19 x i8] c"inline_const_cache\00", align 1
@.str.139 = private unnamed_addr constant [22 x i8] c"peephole_optimization\00", align 1
@.str.141 = private unnamed_addr constant [22 x i8] c"tailcall_optimization\00", align 1
@.str.143 = private unnamed_addr constant [24 x i8] c"specialized_instruction\00", align 1
@.str.145 = private unnamed_addr constant [21 x i8] c"operands_unification\00", align 1
@.str.147 = private unnamed_addr constant [25 x i8] c"instructions_unification\00", align 1
@.str.149 = private unnamed_addr constant [22 x i8] c"frozen_string_literal\00", align 1
@.str.151 = private unnamed_addr constant [28 x i8] c"debug_frozen_string_literal\00", align 1
@.str.153 = private unnamed_addr constant [17 x i8] c"coverage_enabled\00", align 1
@.str.155 = private unnamed_addr constant [12 x i8] c"debug_level\00", align 1
@make_compile_option_value.rbimpl_id = internal global i64 0, align 8
@make_compile_option_value.rbimpl_id.302 = internal global i64 0, align 8
@make_compile_option_value.rbimpl_id.303 = internal global i64 0, align 8
@make_compile_option_value.rbimpl_id.304 = internal global i64 0, align 8
@make_compile_option_value.rbimpl_id.305 = internal global i64 0, align 8
@make_compile_option_value.rbimpl_id.306 = internal global i64 0, align 8
@make_compile_option_value.rbimpl_id.307 = internal global i64 0, align 8
@make_compile_option_value.rbimpl_id.308 = internal global i64 0, align 8
@make_compile_option_value.rbimpl_id.309 = internal global i64 0, align 8
@make_compile_option_value.rbimpl_id.310 = internal global i64 0, align 8

; Function Attrs: inlinehint nounwind sspstrong willreturn memory(none) uwtable
define internal i64 @RB_INT2FIX(i64 noundef %0) #7 {
  %2 = alloca i64, align 8
  %3 = alloca i64, align 8
  %4 = alloca i64, align 8
  %5 = alloca i64, align 8
  %6 = alloca i64, align 8
  %7 = alloca i64, align 8
  store i64 %0, ptr %2, align 8, !tbaa !17
  call void @llvm.lifetime.start.p0(i64 8, ptr %3) #24
  %8 = load i64, ptr %2, align 8, !tbaa !17
  store i64 %8, ptr %3, align 8, !tbaa !17
  call void @llvm.lifetime.start.p0(i64 8, ptr %4) #24
  %9 = load i64, ptr %3, align 8, !tbaa !17
  %10 = shl i64 %9, 1
  %11 = add i64 %10, 1
  store i64 %11, ptr %4, align 8, !tbaa !17
  call void @llvm.lifetime.start.p0(i64 8, ptr %5) #24
  %12 = load i64, ptr %4, align 8, !tbaa !17
  store i64 %12, ptr %5, align 8, !tbaa !17
  call void @llvm.lifetime.start.p0(i64 8, ptr %6) #24
  %13 = load i64, ptr %5, align 8, !tbaa !17
  store i64 %13, ptr %6, align 8, !tbaa !17
  call void @llvm.lifetime.start.p0(i64 8, ptr %7) #24
  %14 = load i64, ptr %6, align 8, !tbaa !17
  store i64 %14, ptr %7, align 8, !tbaa !17
  %15 = load i64, ptr %7, align 8, !tbaa !17
  call void @llvm.lifetime.end.p0(i64 8, ptr %7) #24
  call void @llvm.lifetime.end.p0(i64 8, ptr %6) #24
  call void @llvm.lifetime.end.p0(i64 8, ptr %5) #24
  call void @llvm.lifetime.end.p0(i64 8, ptr %4) #24
  call void @llvm.lifetime.end.p0(i64 8, ptr %3) #24
  ret i64 %15
}

; Function Attrs: inlinehint nounwind sspstrong willreturn memory(read) uwtable
define internal i64 @rb_intern_const(ptr noundef nonnull %0) #3 {
  %2 = alloca ptr, align 8
  %3 = alloca i64, align 8
  store ptr %0, ptr %2, align 8, !tbaa !137
  call void @llvm.lifetime.start.p0(i64 8, ptr %3) #24
  %4 = load ptr, ptr %2, align 8, !tbaa !137
  %5 = call i64 @strlen(ptr noundef %4) #25
  store i64 %5, ptr %3, align 8, !tbaa !17
  %6 = load ptr, ptr %2, align 8, !tbaa !137
  %7 = load i64, ptr %3, align 8, !tbaa !17
  %8 = call i64 @rb_intern2(ptr noundef %6, i64 noundef %7)
  call void @llvm.lifetime.end.p0(i64 8, ptr %3) #24
  ret i64 %8
}

; Function Attrs: inlinehint nounwind sspstrong uwtable
define internal i64 @rb_int2num_inline(i32 noundef %0) #5 {
  %2 = alloca i64, align 8
  %3 = alloca i32, align 4
  store i32 %0, ptr %3, align 4, !tbaa !56
  %4 = load i32, ptr %3, align 4, !tbaa !56
  %5 = sext i32 %4 to i64
  %6 = icmp slt i64 %5, 4611686018427387904
  br i1 %6, label %7, label %15

7:                                                ; preds = %1
  %8 = load i32, ptr %3, align 4, !tbaa !56
  %9 = sext i32 %8 to i64
  %10 = icmp sge i64 %9, -4611686018427387904
  br i1 %10, label %11, label %15

11:                                               ; preds = %7
  %12 = load i32, ptr %3, align 4, !tbaa !56
  %13 = sext i32 %12 to i64
  %14 = call i64 @RB_INT2FIX(i64 noundef %13) #28
  store i64 %14, ptr %2, align 8
  br label %19

15:                                               ; preds = %7, %1
  %16 = load i32, ptr %3, align 4, !tbaa !56
  %17 = sext i32 %16 to i64
  %18 = call i64 @rb_int2big(i64 noundef %17)
  store i64 %18, ptr %2, align 8
  br label %19

19:                                               ; preds = %15, %11
  %20 = load i64, ptr %2, align 8
  ret i64 %20
}

; Function Attrs: inlinehint nounwind sspstrong memory(argmem: readwrite, inaccessiblemem: readwrite) uwtable
define internal i64 @rbimpl_intern_const(ptr noundef nonnull %0, ptr noundef nonnull %1) #9 {
  %3 = alloca ptr, align 8
  %4 = alloca ptr, align 8
  store ptr %0, ptr %3, align 8, !tbaa !66
  store ptr %1, ptr %4, align 8, !tbaa !137
  br label %5

5:                                                ; preds = %10, %2
  %6 = load ptr, ptr %3, align 8, !tbaa !66
  %7 = load i64, ptr %6, align 8, !tbaa !17
  %8 = icmp ne i64 %7, 0
  %9 = xor i1 %8, true
  br i1 %9, label %10, label %14

10:                                               ; preds = %5
  %11 = load ptr, ptr %4, align 8, !tbaa !137
  %12 = call i64 @rb_intern_const(ptr noundef %11) #25
  %13 = load ptr, ptr %3, align 8, !tbaa !66
  store i64 %12, ptr %13, align 8, !tbaa !17
  br label %5, !llvm.loop !256

14:                                               ; preds = %5
  %15 = load ptr, ptr %3, align 8, !tbaa !66
  %16 = load i64, ptr %15, align 8, !tbaa !17
  ret i64 %16
}

; Function Attrs: nounwind sspstrong uwtable
define internal i64 @make_compile_option_value(ptr noundef %0) #0 {
  %2 = alloca ptr, align 8
  %3 = alloca i64, align 8
  %4 = alloca i64, align 8
  %5 = alloca i64, align 8
  %6 = alloca i64, align 8
  %7 = alloca i64, align 8
  %8 = alloca i64, align 8
  %9 = alloca i64, align 8
  %10 = alloca i64, align 8
  %11 = alloca i64, align 8
  %12 = alloca i64, align 8
  %13 = alloca i64, align 8
  %14 = alloca i64, align 8
  store ptr %0, ptr %2, align 8, !tbaa !160
  call void @llvm.lifetime.start.p0(i64 8, ptr %3) #24
  %15 = call i64 @rb_hash_new_with_size(i64 noundef 11)
  store i64 %15, ptr %3, align 8, !tbaa !17
  %16 = load i64, ptr %3, align 8, !tbaa !17
  %17 = call i64 @rbimpl_intern_const(ptr noundef @make_compile_option_value.rbimpl_id, ptr noundef @.str.137) #29
  store i64 %17, ptr %4, align 8, !tbaa !17
  %18 = load i64, ptr %4, align 8, !tbaa !17
  %19 = call i64 @rb_id2sym(i64 noundef %18)
  %20 = load ptr, ptr %2, align 8, !tbaa !160
  %21 = load i16, ptr %20, align 4
  %22 = and i16 %21, 1
  %23 = zext i16 %22 to i32
  %24 = icmp ne i32 %23, 0
  %25 = select i1 %24, i64 20, i64 0
  %26 = call i64 @rb_hash_aset(i64 noundef %16, i64 noundef %19, i64 noundef %25)
  %27 = load i64, ptr %3, align 8, !tbaa !17
  %28 = call i64 @rbimpl_intern_const(ptr noundef @make_compile_option_value.rbimpl_id.302, ptr noundef @.str.139) #29
  store i64 %28, ptr %5, align 8, !tbaa !17
  %29 = load i64, ptr %5, align 8, !tbaa !17
  %30 = call i64 @rb_id2sym(i64 noundef %29)
  %31 = load ptr, ptr %2, align 8, !tbaa !160
  %32 = load i16, ptr %31, align 4
  %33 = lshr i16 %32, 1
  %34 = and i16 %33, 1
  %35 = zext i16 %34 to i32
  %36 = icmp ne i32 %35, 0
  %37 = select i1 %36, i64 20, i64 0
  %38 = call i64 @rb_hash_aset(i64 noundef %27, i64 noundef %30, i64 noundef %37)
  %39 = load i64, ptr %3, align 8, !tbaa !17
  %40 = call i64 @rbimpl_intern_const(ptr noundef @make_compile_option_value.rbimpl_id.303, ptr noundef @.str.141) #29
  store i64 %40, ptr %6, align 8, !tbaa !17
  %41 = load i64, ptr %6, align 8, !tbaa !17
  %42 = call i64 @rb_id2sym(i64 noundef %41)
  %43 = load ptr, ptr %2, align 8, !tbaa !160
  %44 = load i16, ptr %43, align 4
  %45 = lshr i16 %44, 2
  %46 = and i16 %45, 1
  %47 = zext i16 %46 to i32
  %48 = icmp ne i32 %47, 0
  %49 = select i1 %48, i64 20, i64 0
  %50 = call i64 @rb_hash_aset(i64 noundef %39, i64 noundef %42, i64 noundef %49)
  %51 = load i64, ptr %3, align 8, !tbaa !17
  %52 = call i64 @rbimpl_intern_const(ptr noundef @make_compile_option_value.rbimpl_id.304, ptr noundef @.str.143) #29
  store i64 %52, ptr %7, align 8, !tbaa !17
  %53 = load i64, ptr %7, align 8, !tbaa !17
  %54 = call i64 @rb_id2sym(i64 noundef %53)
  %55 = load ptr, ptr %2, align 8, !tbaa !160
  %56 = load i16, ptr %55, align 4
  %57 = lshr i16 %56, 3
  %58 = and i16 %57, 1
  %59 = zext i16 %58 to i32
  %60 = icmp ne i32 %59, 0
  %61 = select i1 %60, i64 20, i64 0
  %62 = call i64 @rb_hash_aset(i64 noundef %51, i64 noundef %54, i64 noundef %61)
  %63 = load i64, ptr %3, align 8, !tbaa !17
  %64 = call i64 @rbimpl_intern_const(ptr noundef @make_compile_option_value.rbimpl_id.305, ptr noundef @.str.145) #29
  store i64 %64, ptr %8, align 8, !tbaa !17
  %65 = load i64, ptr %8, align 8, !tbaa !17
  %66 = call i64 @rb_id2sym(i64 noundef %65)
  %67 = load ptr, ptr %2, align 8, !tbaa !160
  %68 = load i16, ptr %67, align 4
  %69 = lshr i16 %68, 4
  %70 = and i16 %69, 1
  %71 = zext i16 %70 to i32
  %72 = icmp ne i32 %71, 0
  %73 = select i1 %72, i64 20, i64 0
  %74 = call i64 @rb_hash_aset(i64 noundef %63, i64 noundef %66, i64 noundef %73)
  %75 = load i64, ptr %3, align 8, !tbaa !17
  %76 = call i64 @rbimpl_intern_const(ptr noundef @make_compile_option_value.rbimpl_id.306, ptr noundef @.str.147) #29
  store i64 %76, ptr %9, align 8, !tbaa !17
  %77 = load i64, ptr %9, align 8, !tbaa !17
  %78 = call i64 @rb_id2sym(i64 noundef %77)
  %79 = load ptr, ptr %2, align 8, !tbaa !160
  %80 = load i16, ptr %79, align 4
  %81 = lshr i16 %80, 5
  %82 = and i16 %81, 1
  %83 = zext i16 %82 to i32
  %84 = icmp ne i32 %83, 0
  %85 = select i1 %84, i64 20, i64 0
  %86 = call i64 @rb_hash_aset(i64 noundef %75, i64 noundef %78, i64 noundef %85)
  %87 = load i64, ptr %3, align 8, !tbaa !17
  %88 = call i64 @rbimpl_intern_const(ptr noundef @make_compile_option_value.rbimpl_id.307, ptr noundef @.str.151) #29
  store i64 %88, ptr %10, align 8, !tbaa !17
  %89 = load i64, ptr %10, align 8, !tbaa !17
  %90 = call i64 @rb_id2sym(i64 noundef %89)
  %91 = load ptr, ptr %2, align 8, !tbaa !160
  %92 = load i16, ptr %91, align 4
  %93 = lshr i16 %92, 8
  %94 = and i16 %93, 1
  %95 = zext i16 %94 to i32
  %96 = icmp ne i32 %95, 0
  %97 = select i1 %96, i64 20, i64 0
  %98 = call i64 @rb_hash_aset(i64 noundef %87, i64 noundef %90, i64 noundef %97)
  %99 = load i64, ptr %3, align 8, !tbaa !17
  %100 = call i64 @rbimpl_intern_const(ptr noundef @make_compile_option_value.rbimpl_id.308, ptr noundef @.str.153) #29
  store i64 %100, ptr %11, align 8, !tbaa !17
  %101 = load i64, ptr %11, align 8, !tbaa !17
  %102 = call i64 @rb_id2sym(i64 noundef %101)
  %103 = load ptr, ptr %2, align 8, !tbaa !160
  %104 = load i16, ptr %103, align 4
  %105 = lshr i16 %104, 9
  %106 = and i16 %105, 1
  %107 = zext i16 %106 to i32
  %108 = icmp ne i32 %107, 0
  %109 = select i1 %108, i64 20, i64 0
  %110 = call i64 @rb_hash_aset(i64 noundef %99, i64 noundef %102, i64 noundef %109)
  %111 = load i64, ptr %3, align 8, !tbaa !17
  %112 = call i64 @rbimpl_intern_const(ptr noundef @make_compile_option_value.rbimpl_id.309, ptr noundef @.str.155) #29
  store i64 %112, ptr %12, align 8, !tbaa !17
  %113 = load i64, ptr %12, align 8, !tbaa !17
  %114 = call i64 @rb_id2sym(i64 noundef %113)
  %115 = load ptr, ptr %2, align 8, !tbaa !160
  %116 = getelementptr inbounds nuw %struct.rb_compile_option_struct, ptr %115, i32 0, i32 1
  %117 = load i32, ptr %116, align 4, !tbaa !396
  %118 = call i64 @rb_int2num_inline(i32 noundef %117)
  %119 = call i64 @rb_hash_aset(i64 noundef %111, i64 noundef %114, i64 noundef %118)
  call void @llvm.lifetime.start.p0(i64 8, ptr %13) #24
  %120 = load ptr, ptr %2, align 8, !tbaa !160
  %121 = load i16, ptr %120, align 4
  %122 = shl i16 %121, 8
  %123 = ashr i16 %122, 14
  %124 = sext i16 %123 to i32
  %125 = icmp eq i32 %124, -1
  br i1 %125, label %126, label %127

126:                                              ; preds = %1
  br label %135

127:                                              ; preds = %1
  %128 = load ptr, ptr %2, align 8, !tbaa !160
  %129 = load i16, ptr %128, align 4
  %130 = shl i16 %129, 8
  %131 = ashr i16 %130, 14
  %132 = sext i16 %131 to i32
  %133 = icmp ne i32 %132, 0
  %134 = select i1 %133, i64 20, i64 0
  br label %135

135:                                              ; preds = %127, %126
  %136 = phi i64 [ 4, %126 ], [ %134, %127 ]
  store i64 %136, ptr %13, align 8, !tbaa !17
  %137 = load i64, ptr %3, align 8, !tbaa !17
  %138 = call i64 @rbimpl_intern_const(ptr noundef @make_compile_option_value.rbimpl_id.310, ptr noundef @.str.149) #29
  store i64 %138, ptr %14, align 8, !tbaa !17
  %139 = load i64, ptr %14, align 8, !tbaa !17
  %140 = call i64 @rb_id2sym(i64 noundef %139)
  %141 = load i64, ptr %13, align 8, !tbaa !17
  %142 = call i64 @rb_hash_aset(i64 noundef %137, i64 noundef %140, i64 noundef %141)
  %143 = load i64, ptr %3, align 8, !tbaa !17
  call void @llvm.lifetime.end.p0(i64 8, ptr %13) #24
  call void @llvm.lifetime.end.p0(i64 8, ptr %3) #24
  ret i64 %143
}

; Function Attrs: nounwind sspstrong uwtable
define internal i64 @iseqw_s_compile_option_get(i64 noundef %0) #0 {
  %2 = alloca i64, align 8
  store i64 %0, ptr %2, align 8, !tbaa !17
  %3 = call i64 @make_compile_option_value(ptr noundef @COMPILE_OPTION_DEFAULT)
  ret i64 %3
}