; Function Attrs: nounwind sspstrong uwtable
define internal i64 @iseqw_s_compile_option_get(i64 %0) #0 {
  %2 = tail call i64 @rb_hash_new_with_size(i64 noundef 11) #20
  %.pr.i.i = load i64, ptr @make_compile_option_value.rbimpl_id, align 8, !tbaa !42
  %.not4.i.i = icmp eq i64 %.pr.i.i, 0
  br i1 %.not4.i.i, label %.lr.ph.i.i, label %rbimpl_intern_const.exit.i

.lr.ph.i.i:                                       ; preds = %1, %.lr.ph.i.i
  %3 = tail call i64 @rb_intern2(ptr noundef nonnull @.str.137, i64 noundef 18) #20
  store i64 %3, ptr @make_compile_option_value.rbimpl_id, align 8, !tbaa !42
  %.not.i.i = icmp eq i64 %3, 0
  br i1 %.not.i.i, label %.lr.ph.i.i, label %rbimpl_intern_const.exit.i, !llvm.loop !243

rbimpl_intern_const.exit.i:                       ; preds = %.lr.ph.i.i, %1
  %.lcssa.i.i = phi i64 [ %.pr.i.i, %1 ], [ %3, %.lr.ph.i.i ]
  %4 = tail call i64 @rb_id2sym(i64 noundef %.lcssa.i.i) #20
  %5 = load i16, ptr @COMPILE_OPTION_DEFAULT, align 4
  %6 = and i16 %5, 1
  %.not.i = icmp eq i16 %6, 0
  %7 = select i1 %.not.i, i64 0, i64 20
  %8 = tail call i64 @rb_hash_aset(i64 noundef %2, i64 noundef %4, i64 noundef %7) #20
  %.pr.i40.i = load i64, ptr @make_compile_option_value.rbimpl_id.302, align 8, !tbaa !42
  %.not4.i41.i = icmp eq i64 %.pr.i40.i, 0
  br i1 %.not4.i41.i, label %.lr.ph.i43.i, label %rbimpl_intern_const.exit45.i

.lr.ph.i43.i:                                     ; preds = %rbimpl_intern_const.exit.i, %.lr.ph.i43.i
  %9 = tail call i64 @rb_intern2(ptr noundef nonnull @.str.139, i64 noundef 21) #20
  store i64 %9, ptr @make_compile_option_value.rbimpl_id.302, align 8, !tbaa !42
  %.not.i44.i = icmp eq i64 %9, 0
  br i1 %.not.i44.i, label %.lr.ph.i43.i, label %rbimpl_intern_const.exit45.i, !llvm.loop !243

rbimpl_intern_const.exit45.i:                     ; preds = %.lr.ph.i43.i, %rbimpl_intern_const.exit.i
  %.lcssa.i42.i = phi i64 [ %.pr.i40.i, %rbimpl_intern_const.exit.i ], [ %9, %.lr.ph.i43.i ]
  %10 = tail call i64 @rb_id2sym(i64 noundef %.lcssa.i42.i) #20
  %11 = load i16, ptr @COMPILE_OPTION_DEFAULT, align 4
  %12 = and i16 %11, 2
  %.not32.i = icmp eq i16 %12, 0
  %13 = select i1 %.not32.i, i64 0, i64 20
  %14 = tail call i64 @rb_hash_aset(i64 noundef %2, i64 noundef %10, i64 noundef %13) #20
  %.pr.i46.i = load i64, ptr @make_compile_option_value.rbimpl_id.303, align 8, !tbaa !42
  %.not4.i47.i = icmp eq i64 %.pr.i46.i, 0
  br i1 %.not4.i47.i, label %.lr.ph.i49.i, label %rbimpl_intern_const.exit51.i

.lr.ph.i49.i:                                     ; preds = %rbimpl_intern_const.exit45.i, %.lr.ph.i49.i
  %15 = tail call i64 @rb_intern2(ptr noundef nonnull @.str.141, i64 noundef 21) #20
  store i64 %15, ptr @make_compile_option_value.rbimpl_id.303, align 8, !tbaa !42
  %.not.i50.i = icmp eq i64 %15, 0
  br i1 %.not.i50.i, label %.lr.ph.i49.i, label %rbimpl_intern_const.exit51.i, !llvm.loop !243

rbimpl_intern_const.exit51.i:                     ; preds = %.lr.ph.i49.i, %rbimpl_intern_const.exit45.i
  %.lcssa.i48.i = phi i64 [ %.pr.i46.i, %rbimpl_intern_const.exit45.i ], [ %15, %.lr.ph.i49.i ]
  %16 = tail call i64 @rb_id2sym(i64 noundef %.lcssa.i48.i) #20
  %17 = load i16, ptr @COMPILE_OPTION_DEFAULT, align 4
  %18 = and i16 %17, 4
  %.not33.i = icmp eq i16 %18, 0
  %19 = select i1 %.not33.i, i64 0, i64 20
  %20 = tail call i64 @rb_hash_aset(i64 noundef %2, i64 noundef %16, i64 noundef %19) #20
  %.pr.i52.i = load i64, ptr @make_compile_option_value.rbimpl_id.304, align 8, !tbaa !42
  %.not4.i53.i = icmp eq i64 %.pr.i52.i, 0
  br i1 %.not4.i53.i, label %.lr.ph.i55.i, label %rbimpl_intern_const.exit57.i

.lr.ph.i55.i:                                     ; preds = %rbimpl_intern_const.exit51.i, %.lr.ph.i55.i
  %21 = tail call i64 @rb_intern2(ptr noundef nonnull @.str.143, i64 noundef 23) #20
  store i64 %21, ptr @make_compile_option_value.rbimpl_id.304, align 8, !tbaa !42
  %.not.i56.i = icmp eq i64 %21, 0
  br i1 %.not.i56.i, label %.lr.ph.i55.i, label %rbimpl_intern_const.exit57.i, !llvm.loop !243

rbimpl_intern_const.exit57.i:                     ; preds = %.lr.ph.i55.i, %rbimpl_intern_const.exit51.i
  %.lcssa.i54.i = phi i64 [ %.pr.i52.i, %rbimpl_intern_const.exit51.i ], [ %21, %.lr.ph.i55.i ]
  %22 = tail call i64 @rb_id2sym(i64 noundef %.lcssa.i54.i) #20
  %23 = load i16, ptr @COMPILE_OPTION_DEFAULT, align 4
  %24 = and i16 %23, 8
  %.not34.i = icmp eq i16 %24, 0
  %25 = select i1 %.not34.i, i64 0, i64 20
  %26 = tail call i64 @rb_hash_aset(i64 noundef %2, i64 noundef %22, i64 noundef %25) #20
  %.pr.i58.i = load i64, ptr @make_compile_option_value.rbimpl_id.305, align 8, !tbaa !42
  %.not4.i59.i = icmp eq i64 %.pr.i58.i, 0
  br i1 %.not4.i59.i, label %.lr.ph.i61.i, label %rbimpl_intern_const.exit63.i

.lr.ph.i61.i:                                     ; preds = %rbimpl_intern_const.exit57.i, %.lr.ph.i61.i
  %27 = tail call i64 @rb_intern2(ptr noundef nonnull @.str.145, i64 noundef 20) #20
  store i64 %27, ptr @make_compile_option_value.rbimpl_id.305, align 8, !tbaa !42
  %.not.i62.i = icmp eq i64 %27, 0
  br i1 %.not.i62.i, label %.lr.ph.i61.i, label %rbimpl_intern_const.exit63.i, !llvm.loop !243

rbimpl_intern_const.exit63.i:                     ; preds = %.lr.ph.i61.i, %rbimpl_intern_const.exit57.i
  %.lcssa.i60.i = phi i64 [ %.pr.i58.i, %rbimpl_intern_const.exit57.i ], [ %27, %.lr.ph.i61.i ]
  %28 = tail call i64 @rb_id2sym(i64 noundef %.lcssa.i60.i) #20
  %29 = load i16, ptr @COMPILE_OPTION_DEFAULT, align 4
  %30 = and i16 %29, 16
  %.not35.i = icmp eq i16 %30, 0
  %31 = select i1 %.not35.i, i64 0, i64 20
  %32 = tail call i64 @rb_hash_aset(i64 noundef %2, i64 noundef %28, i64 noundef %31) #20
  %.pr.i64.i = load i64, ptr @make_compile_option_value.rbimpl_id.306, align 8, !tbaa !42
  %.not4.i65.i = icmp eq i64 %.pr.i64.i, 0
  br i1 %.not4.i65.i, label %.lr.ph.i67.i, label %rbimpl_intern_const.exit69.i

.lr.ph.i67.i:                                     ; preds = %rbimpl_intern_const.exit63.i, %.lr.ph.i67.i
  %33 = tail call i64 @rb_intern2(ptr noundef nonnull @.str.147, i64 noundef 24) #20
  store i64 %33, ptr @make_compile_option_value.rbimpl_id.306, align 8, !tbaa !42
  %.not.i68.i = icmp eq i64 %33, 0
  br i1 %.not.i68.i, label %.lr.ph.i67.i, label %rbimpl_intern_const.exit69.i, !llvm.loop !243

rbimpl_intern_const.exit69.i:                     ; preds = %.lr.ph.i67.i, %rbimpl_intern_const.exit63.i
  %.lcssa.i66.i = phi i64 [ %.pr.i64.i, %rbimpl_intern_const.exit63.i ], [ %33, %.lr.ph.i67.i ]
  %34 = tail call i64 @rb_id2sym(i64 noundef %.lcssa.i66.i) #20
  %35 = load i16, ptr @COMPILE_OPTION_DEFAULT, align 4
  %36 = and i16 %35, 32
  %.not36.i = icmp eq i16 %36, 0
  %37 = select i1 %.not36.i, i64 0, i64 20
  %38 = tail call i64 @rb_hash_aset(i64 noundef %2, i64 noundef %34, i64 noundef %37) #20
  %.pr.i70.i = load i64, ptr @make_compile_option_value.rbimpl_id.307, align 8, !tbaa !42
  %.not4.i71.i = icmp eq i64 %.pr.i70.i, 0
  br i1 %.not4.i71.i, label %.lr.ph.i73.i, label %rbimpl_intern_const.exit75.i

.lr.ph.i73.i:                                     ; preds = %rbimpl_intern_const.exit69.i, %.lr.ph.i73.i
  %39 = tail call i64 @rb_intern2(ptr noundef nonnull @.str.151, i64 noundef 27) #20
  store i64 %39, ptr @make_compile_option_value.rbimpl_id.307, align 8, !tbaa !42
  %.not.i74.i = icmp eq i64 %39, 0
  br i1 %.not.i74.i, label %.lr.ph.i73.i, label %rbimpl_intern_const.exit75.i, !llvm.loop !243

rbimpl_intern_const.exit75.i:                     ; preds = %.lr.ph.i73.i, %rbimpl_intern_const.exit69.i
  %.lcssa.i72.i = phi i64 [ %.pr.i70.i, %rbimpl_intern_const.exit69.i ], [ %39, %.lr.ph.i73.i ]
  %40 = tail call i64 @rb_id2sym(i64 noundef %.lcssa.i72.i) #20
  %41 = load i16, ptr @COMPILE_OPTION_DEFAULT, align 4
  %42 = and i16 %41, 256
  %.not37.i = icmp eq i16 %42, 0
  %43 = select i1 %.not37.i, i64 0, i64 20
  %44 = tail call i64 @rb_hash_aset(i64 noundef %2, i64 noundef %40, i64 noundef %43) #20
  %.pr.i76.i = load i64, ptr @make_compile_option_value.rbimpl_id.308, align 8, !tbaa !42
  %.not4.i77.i = icmp eq i64 %.pr.i76.i, 0
  br i1 %.not4.i77.i, label %.lr.ph.i79.i, label %rbimpl_intern_const.exit81.i

.lr.ph.i79.i:                                     ; preds = %rbimpl_intern_const.exit75.i, %.lr.ph.i79.i
  %45 = tail call i64 @rb_intern2(ptr noundef nonnull @.str.153, i64 noundef 16) #20
  store i64 %45, ptr @make_compile_option_value.rbimpl_id.308, align 8, !tbaa !42
  %.not.i80.i = icmp eq i64 %45, 0
  br i1 %.not.i80.i, label %.lr.ph.i79.i, label %rbimpl_intern_const.exit81.i, !llvm.loop !243

rbimpl_intern_const.exit81.i:                     ; preds = %.lr.ph.i79.i, %rbimpl_intern_const.exit75.i
  %.lcssa.i78.i = phi i64 [ %.pr.i76.i, %rbimpl_intern_const.exit75.i ], [ %45, %.lr.ph.i79.i ]
  %46 = tail call i64 @rb_id2sym(i64 noundef %.lcssa.i78.i) #20
  %47 = load i16, ptr @COMPILE_OPTION_DEFAULT, align 4
  %48 = and i16 %47, 512
  %.not38.i = icmp eq i16 %48, 0
  %49 = select i1 %.not38.i, i64 0, i64 20
  %50 = tail call i64 @rb_hash_aset(i64 noundef %2, i64 noundef %46, i64 noundef %49) #20
  %.pr.i82.i = load i64, ptr @make_compile_option_value.rbimpl_id.309, align 8, !tbaa !42
  %.not4.i83.i = icmp eq i64 %.pr.i82.i, 0
  br i1 %.not4.i83.i, label %.lr.ph.i85.i, label %rbimpl_intern_const.exit87.i

.lr.ph.i85.i:                                     ; preds = %rbimpl_intern_const.exit81.i, %.lr.ph.i85.i
  %51 = tail call i64 @rb_intern2(ptr noundef nonnull @.str.155, i64 noundef 11) #20
  store i64 %51, ptr @make_compile_option_value.rbimpl_id.309, align 8, !tbaa !42
  %.not.i86.i = icmp eq i64 %51, 0
  br i1 %.not.i86.i, label %.lr.ph.i85.i, label %rbimpl_intern_const.exit87.i, !llvm.loop !243

rbimpl_intern_const.exit87.i:                     ; preds = %.lr.ph.i85.i, %rbimpl_intern_const.exit81.i
  %.lcssa.i84.i = phi i64 [ %.pr.i82.i, %rbimpl_intern_const.exit81.i ], [ %51, %.lr.ph.i85.i ]
  %52 = tail call i64 @rb_id2sym(i64 noundef %.lcssa.i84.i) #20
  %53 = load i32, ptr getelementptr inbounds nuw (i8, ptr @COMPILE_OPTION_DEFAULT, i64 4), align 4, !tbaa !377
  %54 = sext i32 %53 to i64
  %55 = shl nsw i64 %54, 1
  %56 = or disjoint i64 %55, 1
  %57 = tail call i64 @rb_hash_aset(i64 noundef %2, i64 noundef %52, i64 noundef %56) #20
  %58 = load i16, ptr @COMPILE_OPTION_DEFAULT, align 4
  %.pr.i88.i = load i64, ptr @make_compile_option_value.rbimpl_id.310, align 8, !tbaa !42
  %.not4.i89.i = icmp eq i64 %.pr.i88.i, 0
  br i1 %.not4.i89.i, label %.lr.ph.i91.i, label %make_compile_option_value.exit

.lr.ph.i91.i:                                     ; preds = %rbimpl_intern_const.exit87.i, %.lr.ph.i91.i
  %59 = tail call i64 @rb_intern2(ptr noundef nonnull @.str.149, i64 noundef 21) #20
  store i64 %59, ptr @make_compile_option_value.rbimpl_id.310, align 8, !tbaa !42
  %.not.i92.i = icmp eq i64 %59, 0
  br i1 %.not.i92.i, label %.lr.ph.i91.i, label %make_compile_option_value.exit, !llvm.loop !243

make_compile_option_value.exit:                   ; preds = %.lr.ph.i91.i, %rbimpl_intern_const.exit87.i
  %.lcssa.i90.i = phi i64 [ %.pr.i88.i, %rbimpl_intern_const.exit87.i ], [ %59, %.lr.ph.i91.i ]
  %60 = and i16 %58, 192
  %61 = icmp eq i16 %60, 192
  %.not39.i = icmp eq i16 %60, 0
  %62 = select i1 %.not39.i, i64 0, i64 20
  %63 = select i1 %61, i64 4, i64 %62
  %64 = tail call i64 @rb_id2sym(i64 noundef %.lcssa.i90.i) #20
  %65 = tail call i64 @rb_hash_aset(i64 noundef %2, i64 noundef %64, i64 noundef %63) #20
  ret i64 %2
}